; Function Attrs: mustprogress uwtable
define noundef ptr @_ZN5folly3ssl17SSLSessionManager10getFromSSLEPK6ssl_st(ptr noundef %0) local_unnamed_addr #1 align 2 personality ptr @__gxx_personality_v0 {
  %2 = load atomic i8, ptr @_ZGVZN12_GLOBAL__N_117getSSLExDataIndexEvE5index acquire, align 8
  %3 = icmp eq i8 %2, 0
  br i1 %3, label %4, label %_ZN12_GLOBAL__N_117getSSLExDataIndexEv.exit, !prof !92

4:                                                ; preds = %1
  %5 = tail call i32 @__cxa_guard_acquire(ptr nonnull @_ZGVZN12_GLOBAL__N_117getSSLExDataIndexEvE5index) #16
  %.not.i = icmp eq i32 %5, 0
  br i1 %.not.i, label %_ZN12_GLOBAL__N_117getSSLExDataIndexEv.exit, label %6

6:                                                ; preds = %4
  %7 = invoke i32 @CRYPTO_get_ex_new_index(i32 noundef 0, i64 noundef 0, ptr noundef null, ptr noundef null, ptr noundef null, ptr noundef null)
          to label %8 unwind label %9

8:                                                ; preds = %6
  store i32 %7, ptr @_ZZN12_GLOBAL__N_117getSSLExDataIndexEvE5index, align 4, !tbaa !32
  tail call void @__cxa_guard_release(ptr nonnull @_ZGVZN12_GLOBAL__N_117getSSLExDataIndexEvE5index) #16
  br label %_ZN12_GLOBAL__N_117getSSLExDataIndexEv.exit

9:                                                ; preds = %6
  %10 = landingpad { ptr, i32 }
          cleanup
  tail call void @__cxa_guard_abort(ptr nonnull @_ZGVZN12_GLOBAL__N_117getSSLExDataIndexEvE5index) #16
  resume { ptr, i32 } %10

_ZN12_GLOBAL__N_117getSSLExDataIndexEv.exit:      ; preds = %1, %4, %8
  %11 = load i32, ptr @_ZZN12_GLOBAL__N_117getSSLExDataIndexEvE5index, align 4, !tbaa !32
  %12 = tail call ptr @SSL_get_ex_data(ptr noundef %0, i32 noundef %11)
  ret ptr %12
}